target datalayout = "e-m:e-p270:32:32-p271:32:32-p272:64:64-i64:64-i128:128-f80:128-n8:16:32:64-S128"
target triple = "x86_64-pc-linux-gnu"

%struct.ForEachState = type { ptr, i32 }
%struct.List = type { i32, i32, i32, ptr, [0 x %union.ListCell] }
%union.ListCell = type { ptr }
%struct.PlannerInfo = type { i32, ptr, ptr, i32, ptr, ptr, ptr, ptr, i32, ptr, ptr, ptr, ptr, ptr, ptr, ptr, ptr, i32, ptr, ptr, ptr, ptr, ptr, i8, ptr, ptr, ptr, ptr, ptr, i32, ptr, ptr, ptr, ptr, ptr, ptr, ptr, i32, ptr, ptr, ptr, i32, ptr, ptr, ptr, ptr, ptr, ptr, [8 x ptr], [8 x ptr], ptr, ptr, ptr, ptr, ptr, ptr, ptr, double, double, double, i32, i8, i8, i8, i8, i8, i8, i8, i32, ptr, ptr, i32, i8, i8, i32, ptr, ptr, ptr, ptr, ptr, ptr, i8, ptr }
%struct.RelOptInfo = type { i32, i32, ptr, double, i8, i8, i8, ptr, ptr, ptr, ptr, ptr, ptr, ptr, ptr, ptr, ptr, i32, i32, i32, i16, i16, ptr, ptr, ptr, ptr, ptr, ptr, ptr, ptr, i32, double, double, ptr, ptr, ptr, i32, i32, i32, i32, i8, ptr, ptr, ptr, ptr, ptr, %struct.QualCost, i32, ptr, i8, i8, ptr, ptr, ptr, ptr, i32, ptr, i8, ptr, ptr, ptr, ptr, ptr, ptr }
%struct.QualCost = type { double, double }
%struct.RangeTblEntry = type { i32, ptr, ptr, i32, i32, i8, i8, i32, i32, ptr, ptr, i8, i32, i32, ptr, ptr, ptr, ptr, ptr, i8, ptr, ptr, ptr, i32, i8, ptr, ptr, ptr, ptr, double, ptr, i8, i8, ptr }
%struct.Node = type { i32 }
%struct.Expr = type { i32 }
%struct.BoolExpr = type { %struct.Expr, i32, ptr, i32 }
%struct.RestrictInfo = type { i32, ptr, i8, i8, i8, i8, i8, i8, i32, i32, i32, ptr, ptr, ptr, ptr, ptr, ptr, ptr, i32, ptr, %struct.QualCost, double, double, ptr, ptr, ptr, ptr, ptr, ptr, i8, i32, double, double, double, double, i32, i32 }

; Function Attrs: inlinehint nounwind uwtable
define internal zeroext i1 @is_andclause(ptr noundef %0) #3 {
  %2 = alloca ptr, align 8
  store ptr %0, ptr %2, align 8
  %3 = load ptr, ptr %2, align 8
  %4 = icmp ne ptr %3, null
  br i1 %4, label %5, label %15

5:                                                ; preds = %1
  %6 = load ptr, ptr %2, align 8
  %7 = getelementptr inbounds nuw %struct.Node, ptr %6, i32 0, i32 0
  %8 = load i32, ptr %7, align 4
  %9 = icmp eq i32 %8, 21
  br i1 %9, label %10, label %15

10:                                               ; preds = %5
  %11 = load ptr, ptr %2, align 8
  %12 = getelementptr inbounds nuw %struct.BoolExpr, ptr %11, i32 0, i32 1
  %13 = load i32, ptr %12, align 4
  %14 = icmp eq i32 %13, 0
  br label %15

15:                                               ; preds = %10, %5, %1
  %16 = phi i1 [ false, %5 ], [ false, %1 ], [ %14, %10 ]
  ret i1 %16
}

; Function Attrs: nounwind uwtable
define internal zeroext i1 @statext_is_compatible_clause(ptr noundef %0, ptr noundef %1, i32 noundef %2, ptr noundef %3, ptr noundef %4) #0 {
  %6 = alloca i1, align 1
  %7 = alloca ptr, align 8
  %8 = alloca ptr, align 8
  %9 = alloca i32, align 4
  %10 = alloca ptr, align 8
  %11 = alloca ptr, align 8
  %12 = alloca ptr, align 8
  %13 = alloca ptr, align 8
  %14 = alloca ptr, align 8
  %15 = alloca i32, align 4
  %16 = alloca i32, align 4
  %17 = alloca ptr, align 8
  %18 = alloca ptr, align 8
  %19 = alloca %struct.ForEachState, align 8
  %20 = alloca i32, align 4
  %21 = alloca ptr, align 8
  %22 = alloca i32, align 4
  %23 = alloca i16, align 2
  store ptr %0, ptr %7, align 8
  store ptr %1, ptr %8, align 8
  store i32 %2, ptr %9, align 4
  store ptr %3, ptr %10, align 8
  store ptr %4, ptr %11, align 8
  call void @llvm.lifetime.start.p0(i64 8, ptr %12) #8
  %24 = load ptr, ptr %7, align 8
  %25 = getelementptr inbounds nuw %struct.PlannerInfo, ptr %24, i32 0, i32 9
  %26 = load ptr, ptr %25, align 8
  %27 = load i32, ptr %9, align 4
  %28 = zext i32 %27 to i64
  %29 = getelementptr inbounds nuw ptr, ptr %26, i64 %28
  %30 = load ptr, ptr %29, align 8
  store ptr %30, ptr %12, align 8
  call void @llvm.lifetime.start.p0(i64 8, ptr %13) #8
  %31 = load ptr, ptr %7, align 8
  %32 = getelementptr inbounds nuw %struct.PlannerInfo, ptr %31, i32 0, i32 7
  %33 = load ptr, ptr %32, align 8
  %34 = load i32, ptr %9, align 4
  %35 = zext i32 %34 to i64
  %36 = getelementptr inbounds nuw ptr, ptr %33, i64 %35
  %37 = load ptr, ptr %36, align 8
  store ptr %37, ptr %13, align 8
  call void @llvm.lifetime.start.p0(i64 8, ptr %14) #8
  call void @llvm.lifetime.start.p0(i64 4, ptr %15) #8
  call void @llvm.lifetime.start.p0(i64 4, ptr %16) #8
  %38 = load ptr, ptr %8, align 8
  %39 = call zeroext i1 @is_andclause(ptr noundef %38)
  br i1 %39, label %40, label %92

40:                                               ; preds = %5
  call void @llvm.lifetime.start.p0(i64 8, ptr %17) #8
  %41 = load ptr, ptr %8, align 8
  store ptr %41, ptr %17, align 8
  call void @llvm.lifetime.start.p0(i64 8, ptr %18) #8
  call void @llvm.lifetime.start.p0(i64 16, ptr %19) #8
  %42 = getelementptr inbounds nuw %struct.ForEachState, ptr %19, i32 0, i32 0
  %43 = load ptr, ptr %17, align 8
  %44 = getelementptr inbounds nuw %struct.BoolExpr, ptr %43, i32 0, i32 2
  %45 = load ptr, ptr %44, align 8
  store ptr %45, ptr %42, align 8
  %46 = getelementptr inbounds nuw %struct.ForEachState, ptr %19, i32 0, i32 1
  store i32 0, ptr %46, align 8
  %47 = getelementptr i8, ptr %19, i64 12
  call void @llvm.memset.p0.i64(ptr align 4 %47, i8 0, i64 4, i1 false)
  br label %48

48:                                               ; preds = %84, %40
  %49 = getelementptr inbounds nuw %struct.ForEachState, ptr %19, i32 0, i32 0
  %50 = load ptr, ptr %49, align 8
  %51 = icmp ne ptr %50, null
  br i1 %51, label %52, label %69

52:                                               ; preds = %48
  %53 = getelementptr inbounds nuw %struct.ForEachState, ptr %19, i32 0, i32 1
  %54 = load i32, ptr %53, align 8
  %55 = getelementptr inbounds nuw %struct.ForEachState, ptr %19, i32 0, i32 0
  %56 = load ptr, ptr %55, align 8
  %57 = getelementptr inbounds nuw %struct.List, ptr %56, i32 0, i32 1
  %58 = load i32, ptr %57, align 4
  %59 = icmp slt i32 %54, %58
  br i1 %59, label %60, label %69

60:                                               ; preds = %52
  %61 = getelementptr inbounds nuw %struct.ForEachState, ptr %19, i32 0, i32 0
  %62 = load ptr, ptr %61, align 8
  %63 = getelementptr inbounds nuw %struct.List, ptr %62, i32 0, i32 3
  %64 = load ptr, ptr %63, align 8
  %65 = getelementptr inbounds nuw %struct.ForEachState, ptr %19, i32 0, i32 1
  %66 = load i32, ptr %65, align 8
  %67 = sext i32 %66 to i64
  %68 = getelementptr inbounds %union.ListCell, ptr %64, i64 %67
  store ptr %68, ptr %18, align 8
  br label %70

69:                                               ; preds = %52, %48
  store ptr null, ptr %18, align 8
  br label %70

70:                                               ; preds = %69, %60
  %71 = phi i32 [ 1, %60 ], [ 0, %69 ]
  %72 = icmp ne i32 %71, 0
  br i1 %72, label %74, label %73

73:                                               ; preds = %70
  store i32 2, ptr %20, align 4
  br label %88

74:                                               ; preds = %70
  %75 = load ptr, ptr %7, align 8
  %76 = load ptr, ptr %18, align 8
  %77 = load ptr, ptr %76, align 8
  %78 = load i32, ptr %9, align 4
  %79 = load ptr, ptr %10, align 8
  %80 = load ptr, ptr %11, align 8
  %81 = call zeroext i1 @statext_is_compatible_clause(ptr noundef %75, ptr noundef %77, i32 noundef %78, ptr noundef %79, ptr noundef %80)
  br i1 %81, label %83, label %82

82:                                               ; preds = %74
  store i1 false, ptr %6, align 1
  store i32 1, ptr %20, align 4
  br label %88

83:                                               ; preds = %74
  br label %84

84:                                               ; preds = %83
  %85 = getelementptr inbounds nuw %struct.ForEachState, ptr %19, i32 0, i32 1
  %86 = load i32, ptr %85, align 8
  %87 = add i32 %86, 1
  store i32 %87, ptr %85, align 8
  br label %48, !llvm.loop !52

88:                                               ; preds = %82, %73
  call void @llvm.lifetime.end.p0(i64 16, ptr %19) #8
  %89 = load i32, ptr %20, align 4
  switch i32 %89, label %91 [
    i32 2, label %90
  ]

90:                                               ; preds = %88
  store i1 true, ptr %6, align 1
  store i32 1, ptr %20, align 4
  br label %91

91:                                               ; preds = %90, %88
  call void @llvm.lifetime.end.p0(i64 8, ptr %18) #8
  call void @llvm.lifetime.end.p0(i64 8, ptr %17) #8
  br label %205

92:                                               ; preds = %5
  %93 = load ptr, ptr %8, align 8
  %94 = getelementptr inbounds nuw %struct.Node, ptr %93, i32 0, i32 0
  %95 = load i32, ptr %94, align 4
  %96 = icmp eq i32 %95, 317
  br i1 %96, label %98, label %97

97:                                               ; preds = %92
  store i1 false, ptr %6, align 1
  store i32 1, ptr %20, align 4
  br label %205

98:                                               ; preds = %92
  %99 = load ptr, ptr %8, align 8
  store ptr %99, ptr %14, align 8
  %100 = load ptr, ptr %14, align 8
  %101 = getelementptr inbounds nuw %struct.RestrictInfo, ptr %100, i32 0, i32 4
  %102 = load i8, ptr %101, align 2, !range !6, !noundef !7
  %103 = trunc i8 %102 to i1
  br i1 %103, label %104, label %105

104:                                              ; preds = %98
  store i1 false, ptr %6, align 1
  store i32 1, ptr %20, align 4
  br label %205

105:                                              ; preds = %98
  %106 = load ptr, ptr %14, align 8
  %107 = getelementptr inbounds nuw %struct.RestrictInfo, ptr %106, i32 0, i32 11
  %108 = load ptr, ptr %107, align 8
  %109 = call zeroext i1 @bms_get_singleton_member(ptr noundef %108, ptr noundef %15)
  br i1 %109, label %110, label %114

110:                                              ; preds = %105
  %111 = load i32, ptr %15, align 4
  %112 = load i32, ptr %9, align 4
  %113 = icmp ne i32 %111, %112
  br i1 %113, label %114, label %115

114:                                              ; preds = %110, %105
  store i1 false, ptr %6, align 1
  store i32 1, ptr %20, align 4
  br label %205

115:                                              ; preds = %110
  %116 = load ptr, ptr %7, align 8
  %117 = load ptr, ptr %14, align 8
  %118 = getelementptr inbounds nuw %struct.RestrictInfo, ptr %117, i32 0, i32 1
  %119 = load ptr, ptr %118, align 8
  %120 = load i32, ptr %9, align 4
  %121 = load ptr, ptr %10, align 8
  %122 = load ptr, ptr %11, align 8
  %123 = call zeroext i1 @statext_is_compatible_clause_internal(ptr noundef %116, ptr noundef %119, i32 noundef %120, ptr noundef %121, ptr noundef %122)
  br i1 %123, label %125, label %124

124:                                              ; preds = %115
  store i1 false, ptr %6, align 1
  store i32 1, ptr %20, align 4
  br label %205

125:                                              ; preds = %115
  %126 = load ptr, ptr %13, align 8
  %127 = getelementptr inbounds nuw %struct.RelOptInfo, ptr %126, i32 0, i32 39
  %128 = load i32, ptr %127, align 4
  %129 = icmp ne i32 %128, 0
  br i1 %129, label %130, label %134

130:                                              ; preds = %125
  %131 = load ptr, ptr %13, align 8
  %132 = getelementptr inbounds nuw %struct.RelOptInfo, ptr %131, i32 0, i32 39
  %133 = load i32, ptr %132, align 4
  br label %136

134:                                              ; preds = %125
  %135 = call i32 @GetUserId()
  br label %136

136:                                              ; preds = %134, %130
  %137 = phi i32 [ %133, %130 ], [ %135, %134 ]
  store i32 %137, ptr %16, align 4
  %138 = load ptr, ptr %12, align 8
  %139 = getelementptr inbounds nuw %struct.RangeTblEntry, ptr %138, i32 0, i32 4
  %140 = load i32, ptr %139, align 4
  %141 = load i32, ptr %16, align 4
  %142 = call i32 @pg_class_aclcheck(i32 noundef %140, i32 noundef %141, i64 noundef 2)
  %143 = icmp ne i32 %142, 0
  br i1 %143, label %144, label %204

144:                                              ; preds = %136
  call void @llvm.lifetime.start.p0(i64 8, ptr %21) #8
  store ptr null, ptr %21, align 8
  call void @llvm.lifetime.start.p0(i64 4, ptr %22) #8
  store i32 -1, ptr %22, align 4
  br label %145

145:                                              ; preds = %151, %144
  %146 = load ptr, ptr %10, align 8
  %147 = load ptr, ptr %146, align 8
  %148 = load i32, ptr %22, align 4
  %149 = call i32 @bms_next_member(ptr noundef %147, i32 noundef %148)
  store i32 %149, ptr %22, align 4
  %150 = icmp sge i32 %149, 0
  br i1 %150, label %151, label %156

151:                                              ; preds = %145
  %152 = load ptr, ptr %21, align 8
  %153 = load i32, ptr %22, align 4
  %154 = sub i32 %153, -7
  %155 = call ptr @bms_add_member(ptr noundef %152, i32 noundef %154)
  store ptr %155, ptr %21, align 8
  br label %145, !llvm.loop !53

156:                                              ; preds = %145
  %157 = load ptr, ptr %11, align 8
  %158 = load ptr, ptr %157, align 8
  %159 = icmp ne ptr %158, null
  br i1 %159, label %160, label %164

160:                                              ; preds = %156
  %161 = load ptr, ptr %11, align 8
  %162 = load ptr, ptr %161, align 8
  %163 = load i32, ptr %9, align 4
  call void @pull_varattnos(ptr noundef %162, i32 noundef %163, ptr noundef %21)
  br label %164

164:                                              ; preds = %160, %156
  store i32 -1, ptr %22, align 4
  br label %165

165:                                              ; preds = %199, %164
  %166 = load ptr, ptr %21, align 8
  %167 = load i32, ptr %22, align 4
  %168 = call i32 @bms_next_member(ptr noundef %166, i32 noundef %167)
  store i32 %168, ptr %22, align 4
  %169 = icmp sge i32 %168, 0
  br i1 %169, label %170, label %200

170:                                              ; preds = %165
  call void @llvm.lifetime.start.p0(i64 2, ptr %23) #8
  %171 = load i32, ptr %22, align 4
  %172 = add i32 %171, -7
  %173 = trunc i32 %172 to i16
  store i16 %173, ptr %23, align 2
  %174 = load i16, ptr %23, align 2
  %175 = sext i16 %174 to i32
  %176 = icmp eq i32 %175, 0
  br i1 %176, label %177, label %186

177:                                              ; preds = %170
  %178 = load ptr, ptr %12, align 8
  %179 = getelementptr inbounds nuw %struct.RangeTblEntry, ptr %178, i32 0, i32 4
  %180 = load i32, ptr %179, align 4
  %181 = load i32, ptr %16, align 4
  %182 = call i32 @pg_attribute_aclcheck_all(i32 noundef %180, i32 noundef %181, i64 noundef 2, i32 noundef 0)
  %183 = icmp ne i32 %182, 0
  br i1 %183, label %184, label %185

184:                                              ; preds = %177
  store i1 false, ptr %6, align 1
  store i32 1, ptr %20, align 4
  br label %197

185:                                              ; preds = %177
  br label %196

186:                                              ; preds = %170
  %187 = load ptr, ptr %12, align 8
  %188 = getelementptr inbounds nuw %struct.RangeTblEntry, ptr %187, i32 0, i32 4
  %189 = load i32, ptr %188, align 4
  %190 = load i16, ptr %23, align 2
  %191 = load i32, ptr %16, align 4
  %192 = call i32 @pg_attribute_aclcheck(i32 noundef %189, i16 noundef signext %190, i32 noundef %191, i64 noundef 2)
  %193 = icmp ne i32 %192, 0
  br i1 %193, label %194, label %195

194:                                              ; preds = %186
  store i1 false, ptr %6, align 1
  store i32 1, ptr %20, align 4
  br label %197

195:                                              ; preds = %186
  br label %196

196:                                              ; preds = %195, %185
  store i32 0, ptr %20, align 4
  br label %197

197:                                              ; preds = %196, %194, %184
  call void @llvm.lifetime.end.p0(i64 2, ptr %23) #8
  %198 = load i32, ptr %20, align 4
  switch i32 %198, label %201 [
    i32 0, label %199
  ]

199:                                              ; preds = %197
  br label %165, !llvm.loop !54

200:                                              ; preds = %165
  store i32 0, ptr %20, align 4
  br label %201

201:                                              ; preds = %200, %197
  call void @llvm.lifetime.end.p0(i64 4, ptr %22) #8
  call void @llvm.lifetime.end.p0(i64 8, ptr %21) #8
  %202 = load i32, ptr %20, align 4
  switch i32 %202, label %205 [
    i32 0, label %203
  ]

203:                                              ; preds = %201
  br label %204

204:                                              ; preds = %203, %136
  store i1 true, ptr %6, align 1
  store i32 1, ptr %20, align 4
  br label %205

205:                                              ; preds = %204, %201, %124, %114, %104, %97, %91
  call void @llvm.lifetime.end.p0(i64 4, ptr %16) #8
  call void @llvm.lifetime.end.p0(i64 4, ptr %15) #8
  call void @llvm.lifetime.end.p0(i64 8, ptr %14) #8
  call void @llvm.lifetime.end.p0(i64 8, ptr %13) #8
  call void @llvm.lifetime.end.p0(i64 8, ptr %12) #8
  %206 = load i1, ptr %6, align 1
  ret i1 %206
}