; Function Attrs: nounwind uwtable
define internal fastcc noundef zeroext i1 @statext_is_compatible_clause(ptr noundef readonly captures(none) %0, ptr noundef readonly captures(none) %1, i32 noundef %2, ptr noundef nonnull captures(none) %3, ptr noundef nonnull captures(none) %4) unnamed_addr #0 {
  %6 = alloca i32, align 4
  %7 = alloca ptr, align 8
  %8 = getelementptr inbounds nuw i8, ptr %0, i64 72
  %9 = load ptr, ptr %8, align 8
  %10 = zext i32 %2 to i64
  %11 = getelementptr inbounds nuw ptr, ptr %9, i64 %10
  %12 = load ptr, ptr %11, align 8
  %13 = getelementptr inbounds nuw i8, ptr %0, i64 56
  %14 = load ptr, ptr %13, align 8
  %15 = getelementptr inbounds nuw ptr, ptr %14, i64 %10
  %16 = load ptr, ptr %15, align 8
  call void @llvm.lifetime.start.p0(i64 4, ptr nonnull %6) #10
  %.pr.pre = load i32, ptr %1, align 4
  switch i32 %.pr.pre, label %.critedge [
    i32 21, label %is_andclause.exit
    i32 317, label %35
  ]

is_andclause.exit:                                ; preds = %5
  %17 = getelementptr inbounds nuw i8, ptr %1, i64 4
  %18 = load i32, ptr %17, align 4
  %19 = icmp eq i32 %18, 0
  br i1 %19, label %20, label %.critedge

20:                                               ; preds = %is_andclause.exit
  %21 = getelementptr inbounds nuw i8, ptr %1, i64 8
  %22 = load ptr, ptr %21, align 8
  %23 = getelementptr inbounds nuw i8, ptr %22, i64 4
  %.not65 = icmp eq ptr %22, null
  br i1 %.not65, label %.critedge, label %.lr.ph

.lr.ph:                                           ; preds = %20
  %24 = getelementptr inbounds nuw i8, ptr %22, i64 16
  %25 = load i32, ptr %23, align 4
  %26 = icmp sgt i32 %25, 0
  br i1 %26, label %.lr.ph81, label %.critedge

27:                                               ; preds = %.lr.ph81
  %indvars.iv.next = add nuw nsw i64 %indvars.iv, 1
  %28 = load i32, ptr %23, align 4
  %29 = sext i32 %28 to i64
  %30 = icmp slt i64 %indvars.iv.next, %29
  br i1 %30, label %.lr.ph81, label %.critedge

.lr.ph81:                                         ; preds = %.lr.ph, %27
  %indvars.iv = phi i64 [ %indvars.iv.next, %27 ], [ 0, %.lr.ph ]
  %31 = load ptr, ptr %24, align 8
  %32 = getelementptr inbounds nuw %union.ListCell, ptr %31, i64 %indvars.iv
  %33 = load ptr, ptr %32, align 8
  %34 = tail call fastcc zeroext i1 @statext_is_compatible_clause(ptr noundef %0, ptr noundef %33, i32 noundef %2, ptr noundef %3, ptr noundef %4)
  br i1 %34, label %27, label %.critedge

35:                                               ; preds = %5
  %36 = getelementptr inbounds nuw i8, ptr %1, i64 18
  %37 = load i8, ptr %36, align 2, !range !8, !noundef !9
  %38 = trunc nuw i8 %37 to i1
  br i1 %38, label %.critedge, label %39

39:                                               ; preds = %35
  %40 = getelementptr inbounds nuw i8, ptr %1, i64 40
  %41 = load ptr, ptr %40, align 8
  %42 = call zeroext i1 @bms_get_singleton_member(ptr noundef %41, ptr noundef nonnull %6) #10
  %43 = load i32, ptr %6, align 4
  %.not = icmp eq i32 %43, %2
  %or.cond = select i1 %42, i1 %.not, i1 false
  br i1 %or.cond, label %44, label %.critedge

44:                                               ; preds = %39
  %45 = getelementptr inbounds nuw i8, ptr %1, i64 8
  %46 = load ptr, ptr %45, align 8
  %47 = call fastcc zeroext i1 @statext_is_compatible_clause_internal(ptr noundef nonnull %0, ptr noundef %46, i32 noundef %2, ptr noundef %3, ptr noundef %4)
  br i1 %47, label %48, label %.critedge

48:                                               ; preds = %44
  %49 = getelementptr inbounds nuw i8, ptr %16, i64 252
  %50 = load i32, ptr %49, align 4
  %.not60 = icmp eq i32 %50, 0
  br i1 %.not60, label %51, label %53

51:                                               ; preds = %48
  %52 = call i32 @GetUserId() #10
  br label %53

53:                                               ; preds = %48, %51
  %54 = phi i32 [ %52, %51 ], [ %50, %48 ]
  %55 = getelementptr inbounds nuw i8, ptr %12, i64 28
  %56 = load i32, ptr %55, align 4
  %57 = call i32 @pg_class_aclcheck(i32 noundef %56, i32 noundef %54, i64 noundef 2) #10
  %.not61 = icmp eq i32 %57, 0
  br i1 %.not61, label %.critedge, label %58

58:                                               ; preds = %53
  call void @llvm.lifetime.start.p0(i64 8, ptr nonnull %7) #10
  store ptr null, ptr %7, align 8
  %59 = load ptr, ptr %3, align 8
  %60 = call i32 @bms_next_member(ptr noundef %59, i32 noundef -1) #10
  %61 = icmp sgt i32 %60, -1
  br i1 %61, label %.lr.ph83, label %._crit_edge

.lr.ph83:                                         ; preds = %58, %.lr.ph83
  %62 = phi ptr [ %65, %.lr.ph83 ], [ null, %58 ]
  %63 = phi i32 [ %67, %.lr.ph83 ], [ %60, %58 ]
  %64 = add nuw i32 %63, 7
  %65 = call ptr @bms_add_member(ptr noundef %62, i32 noundef %64) #10
  store ptr %65, ptr %7, align 8
  %66 = load ptr, ptr %3, align 8
  %67 = call i32 @bms_next_member(ptr noundef %66, i32 noundef %63) #10
  %68 = icmp sgt i32 %67, -1
  br i1 %68, label %.lr.ph83, label %._crit_edge, !llvm.loop !38

._crit_edge:                                      ; preds = %.lr.ph83, %58
  %69 = phi ptr [ null, %58 ], [ %65, %.lr.ph83 ]
  %70 = load ptr, ptr %4, align 8
  %.not62 = icmp eq ptr %70, null
  br i1 %.not62, label %72, label %71

71:                                               ; preds = %._crit_edge
  call void @pull_varattnos(ptr noundef nonnull %70, i32 noundef %2, ptr noundef nonnull %7) #10
  %.pre = load ptr, ptr %7, align 8
  br label %72

72:                                               ; preds = %71, %._crit_edge
  %73 = phi ptr [ %.pre, %71 ], [ %69, %._crit_edge ]
  %74 = call i32 @bms_next_member(ptr noundef %73, i32 noundef -1) #10
  %75 = icmp slt i32 %74, 0
  br i1 %75, label %.critedge.sink.split, label %.lr.ph85

.lr.ph85:                                         ; preds = %72, %.critedge68
  %76 = phi i32 [ %86, %.critedge68 ], [ %74, %72 ]
  %77 = trunc i32 %76 to i16
  %78 = add i16 %77, -7
  %79 = icmp eq i16 %78, 0
  %80 = load i32, ptr %55, align 4
  br i1 %79, label %81, label %83

81:                                               ; preds = %.lr.ph85
  %82 = call i32 @pg_attribute_aclcheck_all(i32 noundef %80, i32 noundef %54, i64 noundef 2, i32 noundef 0) #10
  %.not64 = icmp eq i32 %82, 0
  br i1 %.not64, label %.critedge68, label %.critedge.sink.split, !llvm.loop !39

83:                                               ; preds = %.lr.ph85
  %84 = call i32 @pg_attribute_aclcheck(i32 noundef %80, i16 noundef signext %78, i32 noundef %54, i64 noundef 2) #10
  %.not63 = icmp eq i32 %84, 0
  br i1 %.not63, label %.critedge68, label %.critedge.sink.split, !llvm.loop !39

.critedge68:                                      ; preds = %83, %81
  %85 = load ptr, ptr %7, align 8
  %86 = call i32 @bms_next_member(ptr noundef %85, i32 noundef %76) #10
  %87 = icmp slt i32 %86, 0
  br i1 %87, label %.critedge.sink.split, label %.lr.ph85

.critedge.sink.split:                             ; preds = %.critedge68, %83, %81, %72
  %.2.ph = phi i1 [ true, %72 ], [ false, %81 ], [ false, %83 ], [ true, %.critedge68 ]
  call void @llvm.lifetime.end.p0(i64 8, ptr nonnull %7) #10
  br label %.critedge

.critedge:                                        ; preds = %.lr.ph81, %27, %.critedge.sink.split, %5, %is_andclause.exit, %20, %.lr.ph, %53, %44, %39, %35
  %.2 = phi i1 [ false, %35 ], [ false, %39 ], [ false, %44 ], [ true, %53 ], [ true, %20 ], [ true, %.lr.ph ], [ false, %is_andclause.exit ], [ false, %5 ], [ %.2.ph, %.critedge.sink.split ], [ %34, %27 ], [ %34, %.lr.ph81 ]
  call void @llvm.lifetime.end.p0(i64 4, ptr nonnull %6) #10
  ret i1 %.2
}